(lp0
(S'cppflags'
p1
ccopy_reg
_reconstructor
p2
(cino.utils
SpaceList
p3
c__builtin__
list
p4
(lp5
S'-mmcu=atmega2560'
p6
aS'-DF_CPU=16000000L'
p7
aS'-DARDUINO=105'
p8
aS'-I/usr/share/arduino/hardware/arduino/cores/arduino'
p9
aS'-ffunction-sections'
p10
aS'-fdata-sections'
p11
aS'-g'
p12
aS'-Os'
p13
aS'-w'
p14
aS'-I/usr/share/arduino/hardware/arduino/variants/mega'
p15
aS'-I/usr/share/arduino/libraries/Servo'
p16
aS'-Ilib/ros_lib'
p17
aS'-Ilib/ros_lib/roscpp'
p18
aS'-Ilib/ros_lib/geometry_msgs'
p19
aS'-Ilib/ros_lib/ros'
p20
aS'-Ilib/ros_lib/map_msgs'
p21
aS'-Ilib/ros_lib/std_srvs'
p22
aS'-Ilib/ros_lib/nav_msgs'
p23
aS'-Ilib/ros_lib/std_msgs'
p24
aS'-Ilib/ros_lib/rospy_tutorials'
p25
aS'-Ilib/ros_lib/rosserial_msgs'
p26
aS'-Ilib/ros_lib/diagnostic_msgs'
p27
aS'-Ilib/ros_lib/topic_tools'
p28
aS'-Ilib/ros_lib/turtlesim'
p29
aS'-Ilib/ros_lib/stereo_msgs'
p30
aS'-Ilib/ros_lib/trajectory_msgs'
p31
aS'-Ilib/ros_lib/dynamic_reconfigure'
p32
aS'-Ilib/ros_lib/rosserial_arduino'
p33
aS'-Ilib/ros_lib/shape_msgs'
p34
aS'-Ilib/ros_lib/rosgraph_msgs'
p35
aS'-Ilib/ros_lib/actionlib_msgs'
p36
aS'-Ilib/ros_lib/roscpp_tutorials'
p37
aS'-Ilib/ros_lib/actionlib'
p38
aS'-Ilib/ros_lib/turtle_actionlib'
p39
aS'-Ilib/ros_lib/tf'
p40
aS'-Ilib/ros_lib/nmea_msgs'
p41
aS'-Ilib/ros_lib/tests'
p42
aS'-Ilib/ros_lib/tf2_msgs'
p43
aS'-Ilib/ros_lib/nodelet'
p44
aS'-Ilib/ros_lib/visualization_msgs'
p45
aS'-Ilib/ros_lib/actionlib_tutorials'
p46
aS'-Ilib/ros_lib/sensor_msgs'
p47
aS'-Ilib/ros_lib/tf2_web_republisher'
p48
aS'-Ilib/ros_lib/bond'
p49
aS'-Ilib/ros_lib/driver_base'
p50
aS'-Ilib/ros_lib/tests/float64_test'
p51
aS'-Ilib/ros_lib/tests/time_test'
p52
aS'-Ilib/ros_lib/tests/array_test'
p53
aS'-I/usr/share/arduino/hardware/arduino/cores/arduino'
p54
aS'-I/usr/share/arduino/hardware/arduino/cores/arduino/avr-libc'
p55
atp56
Rp57
tp58
a(S'cxx'
p59
S'/usr/share/arduino/hardware/tools/avr/bin/avr-g++'
p60
tp61
a(S'build_dir'
p62
S'.build/mega2560'
p63
tp64
a(S'avrdude'
p65
S'/usr/share/arduino/hardware/tools/avrdude'
p66
tp67
a(S'ar'
p68
S'/usr/share/arduino/hardware/tools/avr/bin/avr-ar'
p69
tp70
a(S'names'
p71
(dp72
S'cpp'
p73
S'%s.cpp'
p74
sS'obj'
p75
S'%s.o'
p76
sS'lib'
p77
S'lib%s.a'
p78
sS'deps'
p79
S'%s.d'
p80
stp81
a(S'ldflags'
p82
g2
(g3
g4
(lp83
g6
aS'-Wl,-Os'
p84
aS'-Wl,--gc-sections'
p85
atp86
Rp87
tp88
a(S'arduino_lib_version'
p89
g2
(cino.environment
Version
p90
c__builtin__
tuple
p91
(I1
I0
I5
tp92
tp93
Rp94
tp95
a(S'objcopy'
p96
S'/usr/share/arduino/hardware/tools/avr/bin/avr-objcopy'
p97
tp98
a(S'board_models'
p99
cino.environment
BoardModels
p100
((lp101
(lp102
S'uno'
p103
a(dp104
S'bootloader'
p105
(dp106
S'extended_fuses'
p107
S'0x05'
p108
sS'high_fuses'
p109
S'0xde'
p110
sS'low_fuses'
p111
S'0xff'
p112
sS'lock_bits'
p113
S'0x0F'
p114
sS'file'
p115
S'optiboot_atmega328.hex'
p116
sS'path'
p117
S'optiboot'
p118
sS'unlock_bits'
p119
S'0x3F'
p120
ssS'upload'
p121
(dp122
S'speed'
p123
S'115200'
p124
sS'maximum_size'
p125
S'32256'
p126
sS'protocol'
p127
S'arduino'
p128
ssS'build'
p129
(dp130
S'core'
p131
S'arduino'
p132
sS'mcu'
p133
S'atmega328p'
p134
sS'f_cpu'
p135
S'16000000L'
p136
sS'variant'
p137
S'standard'
p138
ssS'name'
p139
S'Arduino Uno'
p140
sS'_coredir'
p141
S'/usr/share/arduino/hardware/arduino'
p142
saa(lp143
S'atmega328'
p144
a(dp145
S'bootloader'
p146
(dp147
S'extended_fuses'
p148
S'0x05'
p149
sS'high_fuses'
p150
S'0xDA'
p151
sS'low_fuses'
p152
S'0xFF'
p153
sS'lock_bits'
p154
S'0x0F'
p155
sS'file'
p156
S'ATmegaBOOT_168_atmega328.hex'
p157
sS'path'
p158
S'atmega'
p159
sS'unlock_bits'
p160
S'0x3F'
p161
ssS'upload'
p162
(dp163
S'speed'
p164
S'57600'
p165
sS'maximum_size'
p166
S'30720'
p167
sS'protocol'
p168
S'arduino'
p169
ssS'build'
p170
(dp171
S'core'
p172
S'arduino'
p173
sS'mcu'
p174
S'atmega328p'
p175
sS'f_cpu'
p176
S'16000000L'
p177
sS'variant'
p178
S'standard'
p179
ssS'name'
p180
S'Arduino Duemilanove w/ ATmega328'
p181
sg141
S'/usr/share/arduino/hardware/arduino'
p182
saa(lp183
S'diecimila'
p184
a(dp185
S'bootloader'
p186
(dp187
S'extended_fuses'
p188
S'0x00'
p189
sS'high_fuses'
p190
S'0xdd'
p191
sS'low_fuses'
p192
S'0xff'
p193
sS'lock_bits'
p194
S'0x0F'
p195
sS'file'
p196
S'ATmegaBOOT_168_diecimila.hex'
p197
sS'path'
p198
S'atmega'
p199
sS'unlock_bits'
p200
S'0x3F'
p201
ssS'upload'
p202
(dp203
S'speed'
p204
S'19200'
p205
sS'maximum_size'
p206
S'14336'
p207
sS'protocol'
p208
S'arduino'
p209
ssS'build'
p210
(dp211
S'core'
p212
S'arduino'
p213
sS'mcu'
p214
S'atmega168'
p215
sS'f_cpu'
p216
S'16000000L'
p217
sS'variant'
p218
S'standard'
p219
ssS'name'
p220
S'Arduino Diecimila or Duemilanove w/ ATmega168'
p221
sg141
S'/usr/share/arduino/hardware/arduino'
p222
saa(lp223
S'nano328'
p224
a(dp225
S'bootloader'
p226
(dp227
S'extended_fuses'
p228
S'0x05'
p229
sS'high_fuses'
p230
S'0xDA'
p231
sS'low_fuses'
p232
S'0xFF'
p233
sS'lock_bits'
p234
S'0x0F'
p235
sS'file'
p236
S'ATmegaBOOT_168_atmega328.hex'
p237
sS'path'
p238
S'atmega'
p239
sS'unlock_bits'
p240
S'0x3F'
p241
ssS'upload'
p242
(dp243
S'speed'
p244
S'57600'
p245
sS'maximum_size'
p246
S'30720'
p247
sS'protocol'
p248
S'arduino'
p249
ssS'build'
p250
(dp251
S'core'
p252
S'arduino'
p253
sS'mcu'
p254
S'atmega328p'
p255
sS'f_cpu'
p256
S'16000000L'
p257
sS'variant'
p258
S'eightanaloginputs'
p259
ssS'name'
p260
S'Arduino Nano w/ ATmega328'
p261
sg141
S'/usr/share/arduino/hardware/arduino'
p262
saa(lp263
S'nano'
p264
a(dp265
S'bootloader'
p266
(dp267
S'extended_fuses'
p268
S'0x00'
p269
sS'high_fuses'
p270
S'0xdd'
p271
sS'low_fuses'
p272
S'0xff'
p273
sS'lock_bits'
p274
S'0x0F'
p275
sS'file'
p276
S'ATmegaBOOT_168_diecimila.hex'
p277
sS'path'
p278
S'atmega'
p279
sS'unlock_bits'
p280
S'0x3F'
p281
ssS'upload'
p282
(dp283
S'speed'
p284
S'19200'
p285
sS'maximum_size'
p286
S'14336'
p287
sS'protocol'
p288
S'arduino'
p289
ssS'build'
p290
(dp291
S'core'
p292
S'arduino'
p293
sS'mcu'
p294
S'atmega168'
p295
sS'f_cpu'
p296
S'16000000L'
p297
sS'variant'
p298
S'eightanaloginputs'
p299
ssS'name'
p300
S'Arduino Nano w/ ATmega168'
p301
sg141
S'/usr/share/arduino/hardware/arduino'
p302
saa(lp303
S'mega2560'
p304
a(dp305
S'bootloader'
p306
(dp307
S'extended_fuses'
p308
S'0xFD'
p309
sS'high_fuses'
p310
S'0xD8'
p311
sS'low_fuses'
p312
S'0xFF'
p313
sS'lock_bits'
p314
S'0x0F'
p315
sS'file'
p316
S'stk500boot_v2_mega2560.hex'
p317
sS'path'
p318
S'stk500v2'
p319
sS'unlock_bits'
p320
S'0x3F'
p321
ssS'upload'
p322
(dp323
S'speed'
p324
S'115200'
p325
sS'maximum_size'
p326
S'258048'
p327
sS'protocol'
p328
S'wiring'
p329
ssS'build'
p330
(dp331
S'core'
p332
S'arduino'
p333
sS'mcu'
p334
S'atmega2560'
p335
sS'f_cpu'
p336
S'16000000L'
p337
sS'variant'
p338
S'mega'
p339
ssS'name'
p340
S'Arduino Mega 2560 or Mega ADK'
p341
sg141
S'/usr/share/arduino/hardware/arduino'
p342
saa(lp343
S'mega'
p344
a(dp345
S'bootloader'
p346
(dp347
S'extended_fuses'
p348
S'0xF5'
p349
sS'high_fuses'
p350
S'0xDA'
p351
sS'low_fuses'
p352
S'0xFF'
p353
sS'lock_bits'
p354
S'0x0F'
p355
sS'file'
p356
S'ATmegaBOOT_168_atmega1280.hex'
p357
sS'path'
p358
S'atmega'
p359
sS'unlock_bits'
p360
S'0x3F'
p361
ssS'upload'
p362
(dp363
S'speed'
p364
S'57600'
p365
sS'maximum_size'
p366
S'126976'
p367
sS'protocol'
p368
S'arduino'
p369
ssS'build'
p370
(dp371
S'core'
p372
S'arduino'
p373
sS'mcu'
p374
S'atmega1280'
p375
sS'f_cpu'
p376
S'16000000L'
p377
sS'variant'
p378
S'mega'
p379
ssS'name'
p380
S'Arduino Mega (ATmega1280)'
p381
sg141
S'/usr/share/arduino/hardware/arduino'
p382
saa(lp383
S'leonardo'
p384
a(dp385
S'bootloader'
p386
(dp387
S'extended_fuses'
p388
S'0xcb'
p389
sS'high_fuses'
p390
S'0xd8'
p391
sS'low_fuses'
p392
S'0xff'
p393
sS'lock_bits'
p394
S'0x2F'
p395
sS'file'
p396
S'Caterina-Leonardo.hex'
p397
sS'path'
p398
S'caterina'
p399
sS'unlock_bits'
p400
S'0x3F'
p401
ssS'upload'
p402
(dp403
S'speed'
p404
S'57600'
p405
sS'maximum_size'
p406
S'28672'
p407
sS'protocol'
p408
S'avr109'
p409
sS'disable_flushing'
p410
S'true'
p411
ssS'build'
p412
(dp413
S'core'
p414
S'arduino'
p415
sS'f_cpu'
p416
S'16000000L'
p417
sS'vid'
p418
S'0x2341'
p419
sS'pid'
p420
S'0x8036'
p421
sS'variant'
p422
S'leonardo'
p423
sS'mcu'
p424
S'atmega32u4'
p425
ssS'name'
p426
S'Arduino Leonardo'
p427
sg141
S'/usr/share/arduino/hardware/arduino'
p428
saa(lp429
S'esplora'
p430
a(dp431
S'bootloader'
p432
(dp433
S'extended_fuses'
p434
S'0xcb'
p435
sS'high_fuses'
p436
S'0xd8'
p437
sS'low_fuses'
p438
S'0xff'
p439
sS'lock_bits'
p440
S'0x2F'
p441
sS'file'
p442
S'Caterina-Esplora.hex'
p443
sS'path'
p444
S'caterina'
p445
sS'unlock_bits'
p446
S'0x3F'
p447
ssS'upload'
p448
(dp449
S'speed'
p450
S'57600'
p451
sS'maximum_size'
p452
S'28672'
p453
sS'protocol'
p454
S'avr109'
p455
sS'disable_flushing'
p456
S'true'
p457
ssS'build'
p458
(dp459
S'core'
p460
S'arduino'
p461
sS'f_cpu'
p462
S'16000000L'
p463
sS'vid'
p464
S'0x2341'
p465
sS'pid'
p466
S'0x803C'
p467
sS'variant'
p468
S'leonardo'
p469
sS'mcu'
p470
S'atmega32u4'
p471
ssS'name'
p472
S'Arduino Esplora'
p473
sg141
S'/usr/share/arduino/hardware/arduino'
p474
saa(lp475
S'micro'
p476
a(dp477
S'bootloader'
p478
(dp479
S'extended_fuses'
p480
S'0xcb'
p481
sS'high_fuses'
p482
S'0xd8'
p483
sS'low_fuses'
p484
S'0xff'
p485
sS'lock_bits'
p486
S'0x2F'
p487
sS'file'
p488
S'Caterina-Micro.hex'
p489
sS'path'
p490
S'caterina'
p491
sS'unlock_bits'
p492
S'0x3F'
p493
ssS'upload'
p494
(dp495
S'speed'
p496
S'57600'
p497
sS'maximum_size'
p498
S'28672'
p499
sS'protocol'
p500
S'avr109'
p501
sS'disable_flushing'
p502
S'true'
p503
ssS'build'
p504
(dp505
S'core'
p506
S'arduino'
p507
sS'f_cpu'
p508
S'16000000L'
p509
sS'vid'
p510
S'0x2341'
p511
sS'pid'
p512
S'0x8037'
p513
sS'variant'
p514
S'micro'
p515
sS'mcu'
p516
S'atmega32u4'
p517
ssS'name'
p518
S'Arduino Micro'
p519
sg141
S'/usr/share/arduino/hardware/arduino'
p520
saa(lp521
S'mini328'
p522
a(dp523
S'bootloader'
p524
(dp525
S'extended_fuses'
p526
S'0x05'
p527
sS'high_fuses'
p528
S'0xd8'
p529
sS'low_fuses'
p530
S'0xff'
p531
sS'lock_bits'
p532
S'0x0F'
p533
sS'file'
p534
S'optiboot_atmega328-Mini.hex'
p535
sS'path'
p536
S'optiboot'
p537
sS'unlock_bits'
p538
S'0x3F'
p539
ssS'upload'
p540
(dp541
S'speed'
p542
S'115200'
p543
sS'maximum_size'
p544
S'28672'
p545
sS'protocol'
p546
S'arduino'
p547
ssS'build'
p548
(dp549
S'core'
p550
S'arduino'
p551
sS'mcu'
p552
S'atmega328p'
p553
sS'f_cpu'
p554
S'16000000L'
p555
sS'variant'
p556
S'eightanaloginputs'
p557
ssS'name'
p558
S'Arduino Mini w/ ATmega328'
p559
sg141
S'/usr/share/arduino/hardware/arduino'
p560
saa(lp561
S'mini'
p562
a(dp563
S'bootloader'
p564
(dp565
S'extended_fuses'
p566
S'0x00'
p567
sS'high_fuses'
p568
S'0xdd'
p569
sS'low_fuses'
p570
S'0xff'
p571
sS'lock_bits'
p572
S'0x0F'
p573
sS'file'
p574
S'ATmegaBOOT_168_ng.hex'
p575
sS'path'
p576
S'atmega'
p577
sS'unlock_bits'
p578
S'0x3F'
p579
ssS'upload'
p580
(dp581
S'speed'
p582
S'19200'
p583
sS'maximum_size'
p584
S'14336'
p585
sS'protocol'
p586
S'arduino'
p587
ssS'build'
p588
(dp589
S'core'
p590
S'arduino'
p591
sS'mcu'
p592
S'atmega168'
p593
sS'f_cpu'
p594
S'16000000L'
p595
sS'variant'
p596
S'eightanaloginputs'
p597
ssS'name'
p598
S'Arduino Mini w/ ATmega168'
p599
sg141
S'/usr/share/arduino/hardware/arduino'
p600
saa(lp601
S'ethernet'
p602
a(dp603
S'bootloader'
p604
(dp605
S'extended_fuses'
p606
S'0x05'
p607
sS'high_fuses'
p608
S'0xde'
p609
sS'low_fuses'
p610
S'0xff'
p611
sS'lock_bits'
p612
S'0x0F'
p613
sS'file'
p614
S'optiboot_atmega328.hex'
p615
sS'path'
p616
S'optiboot'
p617
sS'unlock_bits'
p618
S'0x3F'
p619
ssS'upload'
p620
(dp621
S'speed'
p622
S'115200'
p623
sS'maximum_size'
p624
S'32256'
p625
sS'protocol'
p626
S'arduino'
p627
ssS'build'
p628
(dp629
S'f_cpu'
p630
S'16000000L'
p631
sS'mcu'
p632
S'atmega328p'
p633
sS'variant'
p634
S'standard'
p635
sS'core'
p636
S'arduino'
p637
ssS'name'
p638
S'Arduino Ethernet'
p639
sg141
S'/usr/share/arduino/hardware/arduino'
p640
saa(lp641
S'fio'
p642
a(dp643
S'bootloader'
p644
(dp645
S'extended_fuses'
p646
S'0x05'
p647
sS'high_fuses'
p648
S'0xDA'
p649
sS'low_fuses'
p650
S'0xFF'
p651
sS'lock_bits'
p652
S'0x0F'
p653
sS'file'
p654
S'ATmegaBOOT_168_atmega328_pro_8MHz.hex'
p655
sS'path'
p656
S'arduino:atmega'
p657
sS'unlock_bits'
p658
S'0x3F'
p659
ssS'upload'
p660
(dp661
S'speed'
p662
S'57600'
p663
sS'maximum_size'
p664
S'30720'
p665
sS'protocol'
p666
S'arduino'
p667
ssS'build'
p668
(dp669
S'core'
p670
S'arduino'
p671
sS'mcu'
p672
S'atmega328p'
p673
sS'f_cpu'
p674
S'8000000L'
p675
sS'variant'
p676
S'eightanaloginputs'
p677
ssS'name'
p678
S'Arduino Fio'
p679
sg141
S'/usr/share/arduino/hardware/arduino'
p680
saa(lp681
S'bt328'
p682
a(dp683
S'bootloader'
p684
(dp685
S'extended_fuses'
p686
S'0x05'
p687
sS'high_fuses'
p688
S'0xd8'
p689
sS'low_fuses'
p690
S'0xff'
p691
sS'lock_bits'
p692
S'0x0F'
p693
sS'file'
p694
S'ATmegaBOOT_168_atmega328_bt.hex'
p695
sS'path'
p696
S'bt'
p697
sS'unlock_bits'
p698
S'0x3F'
p699
ssS'upload'
p700
(dp701
S'speed'
p702
S'19200'
p703
sS'maximum_size'
p704
S'28672'
p705
sS'protocol'
p706
S'arduino'
p707
sS'disable_flushing'
p708
S'true'
p709
ssS'build'
p710
(dp711
S'core'
p712
S'arduino'
p713
sS'mcu'
p714
S'atmega328p'
p715
sS'f_cpu'
p716
S'16000000L'
p717
sS'variant'
p718
S'eightanaloginputs'
p719
ssS'name'
p720
S'Arduino BT w/ ATmega328'
p721
sg141
S'/usr/share/arduino/hardware/arduino'
p722
saa(lp723
S'bt'
p724
a(dp725
S'bootloader'
p726
(dp727
S'extended_fuses'
p728
S'0x00'
p729
sS'high_fuses'
p730
S'0xdd'
p731
sS'low_fuses'
p732
S'0xff'
p733
sS'lock_bits'
p734
S'0x0F'
p735
sS'file'
p736
S'ATmegaBOOT_168.hex'
p737
sS'path'
p738
S'bt'
p739
sS'unlock_bits'
p740
S'0x3F'
p741
ssS'upload'
p742
(dp743
S'speed'
p744
S'19200'
p745
sS'maximum_size'
p746
S'14336'
p747
sS'protocol'
p748
S'arduino'
p749
sS'disable_flushing'
p750
S'true'
p751
ssS'build'
p752
(dp753
S'core'
p754
S'arduino'
p755
sS'mcu'
p756
S'atmega168'
p757
sS'f_cpu'
p758
S'16000000L'
p759
sS'variant'
p760
S'eightanaloginputs'
p761
ssS'name'
p762
S'Arduino BT w/ ATmega168'
p763
sg141
S'/usr/share/arduino/hardware/arduino'
p764
saa(lp765
S'LilyPadUSB'
p766
a(dp767
S'bootloader'
p768
(dp769
S'extended_fuses'
p770
S'0xce'
p771
sS'high_fuses'
p772
S'0xd8'
p773
sS'low_fuses'
p774
S'0xff'
p775
sS'lock_bits'
p776
S'0x2F'
p777
sS'file'
p778
S'Caterina-LilyPadUSB.hex'
p779
sS'path'
p780
S'caterina-LilyPadUSB'
p781
sS'unlock_bits'
p782
S'0x3F'
p783
ssS'upload'
p784
(dp785
S'speed'
p786
S'57600'
p787
sS'maximum_size'
p788
S'28672'
p789
sS'protocol'
p790
S'avr109'
p791
sS'disable_flushing'
p792
S'true'
p793
ssS'build'
p794
(dp795
S'core'
p796
S'arduino'
p797
sS'f_cpu'
p798
S'8000000L'
p799
sS'vid'
p800
S'0x1B4F'
p801
sS'pid'
p802
S'0x9208'
p803
sS'variant'
p804
S'leonardo'
p805
sS'mcu'
p806
S'atmega32u4'
p807
ssS'name'
p808
S'LilyPad Arduino USB'
p809
sg141
S'/usr/share/arduino/hardware/arduino'
p810
saa(lp811
S'lilypad328'
p812
a(dp813
S'bootloader'
p814
(dp815
S'extended_fuses'
p816
S'0x05'
p817
sS'high_fuses'
p818
S'0xDA'
p819
sS'low_fuses'
p820
S'0xFF'
p821
sS'lock_bits'
p822
S'0x0F'
p823
sS'file'
p824
S'ATmegaBOOT_168_atmega328_pro_8MHz.hex'
p825
sS'path'
p826
S'atmega'
p827
sS'unlock_bits'
p828
S'0x3F'
p829
ssS'upload'
p830
(dp831
S'speed'
p832
S'57600'
p833
sS'maximum_size'
p834
S'30720'
p835
sS'protocol'
p836
S'arduino'
p837
ssS'build'
p838
(dp839
S'core'
p840
S'arduino'
p841
sS'mcu'
p842
S'atmega328p'
p843
sS'f_cpu'
p844
S'8000000L'
p845
sS'variant'
p846
S'standard'
p847
ssS'name'
p848
S'LilyPad Arduino w/ ATmega328'
p849
sg141
S'/usr/share/arduino/hardware/arduino'
p850
saa(lp851
S'lilypad'
p852
a(dp853
S'bootloader'
p854
(dp855
S'extended_fuses'
p856
S'0x00'
p857
sS'high_fuses'
p858
S'0xdd'
p859
sS'low_fuses'
p860
S'0xe2'
p861
sS'lock_bits'
p862
S'0x0F'
p863
sS'file'
p864
S'LilyPadBOOT_168.hex'
p865
sS'path'
p866
S'lilypad'
p867
sS'unlock_bits'
p868
S'0x3F'
p869
ssS'upload'
p870
(dp871
S'speed'
p872
S'19200'
p873
sS'maximum_size'
p874
S'14336'
p875
sS'protocol'
p876
S'arduino'
p877
ssS'build'
p878
(dp879
S'core'
p880
S'arduino'
p881
sS'mcu'
p882
S'atmega168'
p883
sS'f_cpu'
p884
S'8000000L'
p885
sS'variant'
p886
S'standard'
p887
ssS'name'
p888
S'LilyPad Arduino w/ ATmega168'
p889
sg141
S'/usr/share/arduino/hardware/arduino'
p890
saa(lp891
S'pro5v328'
p892
a(dp893
S'bootloader'
p894
(dp895
S'extended_fuses'
p896
S'0x05'
p897
sS'high_fuses'
p898
S'0xDA'
p899
sS'low_fuses'
p900
S'0xFF'
p901
sS'lock_bits'
p902
S'0x0F'
p903
sS'file'
p904
S'ATmegaBOOT_168_atmega328.hex'
p905
sS'path'
p906
S'atmega'
p907
sS'unlock_bits'
p908
S'0x3F'
p909
ssS'upload'
p910
(dp911
S'speed'
p912
S'57600'
p913
sS'maximum_size'
p914
S'30720'
p915
sS'protocol'
p916
S'arduino'
p917
ssS'build'
p918
(dp919
S'core'
p920
S'arduino'
p921
sS'mcu'
p922
S'atmega328p'
p923
sS'f_cpu'
p924
S'16000000L'
p925
sS'variant'
p926
S'standard'
p927
ssS'name'
p928
S'Arduino Pro or Pro Mini (5V, 16 MHz) w/ ATmega328'
p929
sg141
S'/usr/share/arduino/hardware/arduino'
p930
saa(lp931
S'pro5v'
p932
a(dp933
S'bootloader'
p934
(dp935
S'extended_fuses'
p936
S'0x00'
p937
sS'high_fuses'
p938
S'0xdd'
p939
sS'low_fuses'
p940
S'0xff'
p941
sS'lock_bits'
p942
S'0x0F'
p943
sS'file'
p944
S'ATmegaBOOT_168_diecimila.hex'
p945
sS'path'
p946
S'atmega'
p947
sS'unlock_bits'
p948
S'0x3F'
p949
ssS'upload'
p950
(dp951
S'speed'
p952
S'19200'
p953
sS'maximum_size'
p954
S'14336'
p955
sS'protocol'
p956
S'arduino'
p957
ssS'build'
p958
(dp959
S'core'
p960
S'arduino'
p961
sS'mcu'
p962
S'atmega168'
p963
sS'f_cpu'
p964
S'16000000L'
p965
sS'variant'
p966
S'standard'
p967
ssS'name'
p968
S'Arduino Pro or Pro Mini (5V, 16 MHz) w/ ATmega168'
p969
sg141
S'/usr/share/arduino/hardware/arduino'
p970
saa(lp971
S'pro328'
p972
a(dp973
S'bootloader'
p974
(dp975
S'extended_fuses'
p976
S'0x05'
p977
sS'high_fuses'
p978
S'0xDA'
p979
sS'low_fuses'
p980
S'0xFF'
p981
sS'lock_bits'
p982
S'0x0F'
p983
sS'file'
p984
S'ATmegaBOOT_168_atmega328_pro_8MHz.hex'
p985
sS'path'
p986
S'atmega'
p987
sS'unlock_bits'
p988
S'0x3F'
p989
ssS'upload'
p990
(dp991
S'speed'
p992
S'57600'
p993
sS'maximum_size'
p994
S'30720'
p995
sS'protocol'
p996
S'arduino'
p997
ssS'build'
p998
(dp999
S'core'
p1000
S'arduino'
p1001
sS'mcu'
p1002
S'atmega328p'
p1003
sS'f_cpu'
p1004
S'8000000L'
p1005
sS'variant'
p1006
S'standard'
p1007
ssS'name'
p1008
S'Arduino Pro or Pro Mini (3.3V, 8 MHz) w/ ATmega328'
p1009
sg141
S'/usr/share/arduino/hardware/arduino'
p1010
saa(lp1011
S'pro'
p1012
a(dp1013
S'bootloader'
p1014
(dp1015
S'extended_fuses'
p1016
S'0x00'
p1017
sS'high_fuses'
p1018
S'0xdd'
p1019
sS'low_fuses'
p1020
S'0xc6'
p1021
sS'lock_bits'
p1022
S'0x0F'
p1023
sS'file'
p1024
S'ATmegaBOOT_168_pro_8MHz.hex'
p1025
sS'path'
p1026
S'atmega'
p1027
sS'unlock_bits'
p1028
S'0x3F'
p1029
ssS'upload'
p1030
(dp1031
S'speed'
p1032
S'19200'
p1033
sS'maximum_size'
p1034
S'14336'
p1035
sS'protocol'
p1036
S'arduino'
p1037
ssS'build'
p1038
(dp1039
S'core'
p1040
S'arduino'
p1041
sS'mcu'
p1042
S'atmega168'
p1043
sS'f_cpu'
p1044
S'8000000L'
p1045
sS'variant'
p1046
S'standard'
p1047
ssS'name'
p1048
S'Arduino Pro or Pro Mini (3.3V, 8 MHz) w/ ATmega168'
p1049
sg141
S'/usr/share/arduino/hardware/arduino'
p1050
saa(lp1051
S'atmega168'
p1052
a(dp1053
S'bootloader'
p1054
(dp1055
S'extended_fuses'
p1056
S'0x00'
p1057
sS'high_fuses'
p1058
S'0xdd'
p1059
sS'low_fuses'
p1060
S'0xff'
p1061
sS'lock_bits'
p1062
S'0x0F'
p1063
sS'file'
p1064
S'ATmegaBOOT_168_ng.hex'
p1065
sS'path'
p1066
S'atmega'
p1067
sS'unlock_bits'
p1068
S'0x3F'
p1069
ssS'upload'
p1070
(dp1071
S'speed'
p1072
S'19200'
p1073
sS'maximum_size'
p1074
S'14336'
p1075
sS'protocol'
p1076
S'arduino'
p1077
ssS'build'
p1078
(dp1079
S'core'
p1080
S'arduino'
p1081
sS'mcu'
p1082
S'atmega168'
p1083
sS'f_cpu'
p1084
S'16000000L'
p1085
sS'variant'
p1086
S'standard'
p1087
ssS'name'
p1088
S'Arduino NG or older w/ ATmega168'
p1089
sg141
S'/usr/share/arduino/hardware/arduino'
p1090
saa(lp1091
S'atmega8'
p1092
a(dp1093
S'bootloader'
p1094
(dp1095
S'high_fuses'
p1096
S'0xca'
p1097
sS'low_fuses'
p1098
S'0xdf'
p1099
sS'lock_bits'
p1100
S'0x0F'
p1101
sS'file'
p1102
S'ATmegaBOOT-prod-firmware-2009-11-07.hex'
p1103
sS'path'
p1104
S'atmega8'
p1105
sS'unlock_bits'
p1106
S'0x3F'
p1107
ssS'upload'
p1108
(dp1109
S'speed'
p1110
S'19200'
p1111
sS'maximum_size'
p1112
S'7168'
p1113
sS'protocol'
p1114
S'arduino'
p1115
ssS'build'
p1116
(dp1117
S'core'
p1118
S'arduino'
p1119
sS'mcu'
p1120
S'atmega8'
p1121
sS'f_cpu'
p1122
S'16000000L'
p1123
sS'variant'
p1124
S'standard'
p1125
ssS'name'
p1126
S'Arduino NG or older w/ ATmega8'
p1127
sg141
S'/usr/share/arduino/hardware/arduino'
p1128
saa(lp1129
S'robotControl'
p1130
a(dp1131
S'bootloader'
p1132
(dp1133
S'extended_fuses'
p1134
S'0xcb'
p1135
sS'high_fuses'
p1136
S'0xd8'
p1137
sS'low_fuses'
p1138
S'0xff'
p1139
sS'lock_bits'
p1140
S'0x2F'
p1141
sS'file'
p1142
S'Caterina-Robot-Control.hex'
p1143
sS'path'
p1144
S'caterina-Arduino_Robot'
p1145
sS'unlock_bits'
p1146
S'0x3F'
p1147
ssS'upload'
p1148
(dp1149
S'speed'
p1150
S'57600'
p1151
sS'maximum_size'
p1152
S'28672'
p1153
sS'protocol'
p1154
S'avr109'
p1155
sS'disable_flushing'
p1156
S'true'
p1157
ssS'build'
p1158
(dp1159
S'core'
p1160
S'robot'
p1161
sS'f_cpu'
p1162
S'16000000L'
p1163
sS'vid'
p1164
S'0x2341'
p1165
sS'pid'
p1166
S'0x8038'
p1167
sS'variant'
p1168
S'robot_control'
p1169
sS'mcu'
p1170
S'atmega32u4'
p1171
ssS'name'
p1172
S'Arduino Robot Control'
p1173
sg141
S'/usr/share/arduino/hardware/arduino'
p1174
saa(lp1175
S'robotMotor'
p1176
a(dp1177
S'bootloader'
p1178
(dp1179
S'extended_fuses'
p1180
S'0xcb'
p1181
sS'high_fuses'
p1182
S'0xd8'
p1183
sS'low_fuses'
p1184
S'0xff'
p1185
sS'lock_bits'
p1186
S'0x2F'
p1187
sS'file'
p1188
S'Caterina-Robot-Motor.hex'
p1189
sS'path'
p1190
S'caterina-Arduino_Robot'
p1191
sS'unlock_bits'
p1192
S'0x3F'
p1193
ssS'upload'
p1194
(dp1195
S'speed'
p1196
S'57600'
p1197
sS'maximum_size'
p1198
S'28672'
p1199
sS'protocol'
p1200
S'avr109'
p1201
sS'disable_flushing'
p1202
S'true'
p1203
ssS'build'
p1204
(dp1205
S'core'
p1206
S'robot'
p1207
sS'f_cpu'
p1208
S'16000000L'
p1209
sS'vid'
p1210
S'0x2341'
p1211
sS'pid'
p1212
S'0x8039'
p1213
sS'variant'
p1214
S'robot_motor'
p1215
sS'mcu'
p1216
S'atmega32u4'
p1217
ssS'name'
p1218
S'Arduino Robot Motor'
p1219
sg141
S'/usr/share/arduino/hardware/arduino'
p1220
saatp1221
Rp1222
(dp1223
S'default'
p1224
S'uno'
p1225
sbtp1226
a(S'used_libs'
p1227
(lp1228
S'/usr/share/arduino/libraries/Servo'
p1229
aS'lib/ros_lib'
p1230
aS'/usr/share/arduino/hardware/arduino/cores/arduino'
p1231
atp1232
a(S'make'
p1233
S'/usr/share/arduino/hardware/tools/avr/bin/make'
p1234
tp1235
a(S'arduino_libraries_dir'
p1236
S'/usr/share/arduino/libraries'
p1237
tp1238
a(S'cc'
p1239
S'/usr/share/arduino/hardware/tools/avr/bin/avr-gcc'
p1240
tp1241
a(S'cflags'
p1242
g2
(g3
g4
(lp1243
tp1244
Rp1245
tp1246
a(S'cxxflags'
p1247
g2
(g3
g4
(lp1248
S'-fno-exceptions'
p1249
atp1250
Rp1251
tp1252
a(S'arduino_variants_dir'
p1253
S'/usr/share/arduino/hardware/arduino/variants'
p1254
tp1255
a(S'stty'
p1256
S'/bin/stty'
p1257
tp1258
a(S'version.txt'
p1259
S'/usr/share/arduino/lib/version.txt'
p1260
tp1261
a(S'arduino_core_dir'
p1262
g1231
tp1263
a(S'boards.txt'
p1264
(lp1265
S'/usr/share/arduino/hardware/arduino/boards.txt'
p1266
atp1267
a(S'avrdude.conf'
p1268
S'/usr/share/arduino/hardware/tools/avrdude.conf'
p1269
tp1270
a(S'deps'
p1271
g2
(g3
g4
(lp1272
S'.build/mega2560/src/dependencies.d'
p1273
aS'.build/mega2560/arduino/dependencies.d'
p1274
aS'.build/mega2560/Servo/dependencies.d'
p1275
aS'.build/mega2560/ros_lib/dependencies.d'
p1276
atp1277
Rp1278
tp1279
a.